target datalayout = "e-m:e-p270:32:32-p271:32:32-p272:64:64-i64:64-i128:128-f80:128-n8:16:32:64-S128"
target triple = "x86_64-pc-linux-gnu"

%struct._packet_info = type { ptr, ptr, i32, i32, %struct.nstime_t, %struct.nstime_t, %struct.nstime_t, i32, ptr, ptr, ptr, ptr, %struct._address, %struct._address, %struct._address, %struct._address, %struct._address, %struct._address, i32, ptr, i32, %struct.anon, i32, i32, i32, i32, ptr, i32, ptr, ptr, i16, i16, i32, i32, i16, i32, i32, ptr, ptr, ptr, i8, i8, i16, i16, i16, i32, i16, i16, ptr, ptr, ptr, ptr, ptr, i32 }
%struct.nstime_t = type { i64, i32 }
%struct._address = type { i32, i32, ptr, ptr }
%struct.anon = type { i8, [3 x i8] }

@hf_ubx_rxm_sfrbx = internal global i32 0, align 4
@.str.504 = private unnamed_addr constant [14 x i8] c"UBX-RXM-SFRBX\00", align 1
@hf_ubx_rxm_sfrbx_gnssid = internal global i32 0, align 4
@hf_ubx_rxm_sfrbx_svid = internal global i32 0, align 4
@hf_ubx_rxm_sfrbx_sigid = internal global i32 0, align 4
@hf_ubx_rxm_sfrbx_freqid = internal global i32 0, align 4
@hf_ubx_rxm_sfrbx_numwords = internal global i32 0, align 4
@hf_ubx_rxm_sfrbx_chn = internal global i32 0, align 4
@hf_ubx_rxm_sfrbx_version = internal global i32 0, align 4
@hf_ubx_rxm_sfrbx_dwrd = internal global i32 0, align 4
@hf_ubx_rxm_sfrbx_reserved1 = internal global i32 0, align 4
@hf_ubx_rxm_sfrbx_reserved2 = internal global i32 0, align 4
@hf_ubx_rxm_sfrbx_reserved3 = internal global i32 0, align 4
@ett_ubx_rxm_sfrbx = internal global i32 0, align 4
@ubx_gnssid_dissector_table = internal global ptr null, align 8
@.str.765 = private unnamed_addr constant [24 x i8] c"GNSS navigation message\00", align 1

; Function Attrs: nounwind uwtable
define internal void @phton32(ptr noundef %0, i32 noundef %1) #0 {
  %3 = alloca ptr, align 8
  %4 = alloca i32, align 4
  store ptr %0, ptr %3, align 8
  store i32 %1, ptr %4, align 4
  %5 = load i32, ptr %4, align 4
  %6 = lshr i32 %5, 24
  %7 = trunc i32 %6 to i8
  %8 = load ptr, ptr %3, align 8
  %9 = getelementptr i8, ptr %8, i64 0
  store i8 %7, ptr %9, align 1
  %10 = load i32, ptr %4, align 4
  %11 = lshr i32 %10, 16
  %12 = trunc i32 %11 to i8
  %13 = load ptr, ptr %3, align 8
  %14 = getelementptr i8, ptr %13, i64 1
  store i8 %12, ptr %14, align 1
  %15 = load i32, ptr %4, align 4
  %16 = lshr i32 %15, 8
  %17 = trunc i32 %16 to i8
  %18 = load ptr, ptr %3, align 8
  %19 = getelementptr i8, ptr %18, i64 2
  store i8 %17, ptr %19, align 1
  %20 = load i32, ptr %4, align 4
  %21 = lshr i32 %20, 0
  %22 = trunc i32 %21 to i8
  %23 = load ptr, ptr %3, align 8
  %24 = getelementptr i8, ptr %23, i64 3
  store i8 %22, ptr %24, align 1
  ret void
}

; Function Attrs: nounwind uwtable
define internal i32 @dissect_ubx_rxm_sfrbx(ptr noundef %0, ptr noundef %1, ptr noundef %2, ptr noundef %3) #0 {
  %5 = alloca ptr, align 8
  %6 = alloca ptr, align 8
  %7 = alloca ptr, align 8
  %8 = alloca ptr, align 8
  %9 = alloca ptr, align 8
  %10 = alloca ptr, align 8
  %11 = alloca i8, align 1
  %12 = alloca i32, align 4
  %13 = alloca i32, align 4
  %14 = alloca i32, align 4
  %15 = alloca ptr, align 8
  %16 = alloca ptr, align 8
  store ptr %0, ptr %5, align 8
  store ptr %1, ptr %6, align 8
  store ptr %2, ptr %7, align 8
  store ptr %3, ptr %8, align 8
  %17 = load ptr, ptr %6, align 8
  %18 = getelementptr inbounds %struct._packet_info, ptr %17, i32 0, i32 1
  %19 = load ptr, ptr %18, align 8
  call void @col_set_str(ptr noundef %19, i32 noundef 34, ptr noundef @.str.504)
  %20 = load ptr, ptr %6, align 8
  %21 = getelementptr inbounds %struct._packet_info, ptr %20, i32 0, i32 1
  %22 = load ptr, ptr %21, align 8
  call void @col_clear(ptr noundef %22, i32 noundef 25)
  %23 = load ptr, ptr %5, align 8
  %24 = call zeroext i8 @tvb_get_guint8(ptr noundef %23, i32 noundef 4)
  %25 = zext i8 %24 to i32
  store i32 %25, ptr %13, align 4
  %26 = load ptr, ptr %5, align 8
  %27 = call zeroext i8 @tvb_get_guint8(ptr noundef %26, i32 noundef 6)
  %28 = zext i8 %27 to i32
  store i32 %28, ptr %14, align 4
  %29 = load ptr, ptr %7, align 8
  %30 = load i32, ptr @hf_ubx_rxm_sfrbx, align 4
  %31 = load ptr, ptr %5, align 8
  %32 = load i32, ptr %13, align 4
  %33 = mul i32 %32, 4
  %34 = add i32 8, %33
  %35 = call ptr @proto_tree_add_item(ptr noundef %29, i32 noundef %30, ptr noundef %31, i32 noundef 0, i32 noundef %34, i32 noundef 0)
  store ptr %35, ptr %15, align 8
  %36 = load ptr, ptr %15, align 8
  %37 = load i32, ptr @ett_ubx_rxm_sfrbx, align 4
  %38 = call ptr @proto_item_add_subtree(ptr noundef %36, i32 noundef %37)
  store ptr %38, ptr %16, align 8
  %39 = load ptr, ptr %16, align 8
  %40 = load i32, ptr @hf_ubx_rxm_sfrbx_gnssid, align 4
  %41 = load ptr, ptr %5, align 8
  %42 = call ptr @proto_tree_add_item_ret_uint(ptr noundef %39, i32 noundef %40, ptr noundef %41, i32 noundef 0, i32 noundef 1, i32 noundef 0, ptr noundef %12)
  %43 = load ptr, ptr %16, align 8
  %44 = load i32, ptr @hf_ubx_rxm_sfrbx_svid, align 4
  %45 = load ptr, ptr %5, align 8
  %46 = call ptr @proto_tree_add_item(ptr noundef %43, i32 noundef %44, ptr noundef %45, i32 noundef 1, i32 noundef 1, i32 noundef 0)
  %47 = load i32, ptr %14, align 4
  switch i32 %47, label %58 [
    i32 1, label %48
    i32 2, label %53
  ]

48:                                               ; preds = %4
  %49 = load ptr, ptr %16, align 8
  %50 = load i32, ptr @hf_ubx_rxm_sfrbx_reserved1, align 4
  %51 = load ptr, ptr %5, align 8
  %52 = call ptr @proto_tree_add_item(ptr noundef %49, i32 noundef %50, ptr noundef %51, i32 noundef 2, i32 noundef 1, i32 noundef 0)
  br label %58

53:                                               ; preds = %4
  %54 = load ptr, ptr %16, align 8
  %55 = load i32, ptr @hf_ubx_rxm_sfrbx_sigid, align 4
  %56 = load ptr, ptr %5, align 8
  %57 = call ptr @proto_tree_add_item(ptr noundef %54, i32 noundef %55, ptr noundef %56, i32 noundef 2, i32 noundef 1, i32 noundef 0)
  br label %58

58:                                               ; preds = %53, %48, %4
  %59 = load ptr, ptr %16, align 8
  %60 = load i32, ptr @hf_ubx_rxm_sfrbx_freqid, align 4
  %61 = load ptr, ptr %5, align 8
  %62 = call ptr @proto_tree_add_item(ptr noundef %59, i32 noundef %60, ptr noundef %61, i32 noundef 3, i32 noundef 1, i32 noundef 0)
  %63 = load ptr, ptr %16, align 8
  %64 = load i32, ptr @hf_ubx_rxm_sfrbx_numwords, align 4
  %65 = load ptr, ptr %5, align 8
  %66 = call ptr @proto_tree_add_item(ptr noundef %63, i32 noundef %64, ptr noundef %65, i32 noundef 4, i32 noundef 1, i32 noundef 0)
  %67 = load i32, ptr %14, align 4
  switch i32 %67, label %78 [
    i32 1, label %68
    i32 2, label %73
  ]

68:                                               ; preds = %58
  %69 = load ptr, ptr %16, align 8
  %70 = load i32, ptr @hf_ubx_rxm_sfrbx_reserved2, align 4
  %71 = load ptr, ptr %5, align 8
  %72 = call ptr @proto_tree_add_item(ptr noundef %69, i32 noundef %70, ptr noundef %71, i32 noundef 5, i32 noundef 1, i32 noundef 0)
  br label %78

73:                                               ; preds = %58
  %74 = load ptr, ptr %16, align 8
  %75 = load i32, ptr @hf_ubx_rxm_sfrbx_chn, align 4
  %76 = load ptr, ptr %5, align 8
  %77 = call ptr @proto_tree_add_item(ptr noundef %74, i32 noundef %75, ptr noundef %76, i32 noundef 5, i32 noundef 1, i32 noundef 0)
  br label %78

78:                                               ; preds = %73, %68, %58
  %79 = load ptr, ptr %16, align 8
  %80 = load i32, ptr @hf_ubx_rxm_sfrbx_version, align 4
  %81 = load ptr, ptr %5, align 8
  %82 = call ptr @proto_tree_add_item(ptr noundef %79, i32 noundef %80, ptr noundef %81, i32 noundef 6, i32 noundef 1, i32 noundef 0)
  %83 = load i32, ptr %14, align 4
  switch i32 %83, label %94 [
    i32 1, label %84
    i32 2, label %89
  ]

84:                                               ; preds = %78
  %85 = load ptr, ptr %16, align 8
  %86 = load i32, ptr @hf_ubx_rxm_sfrbx_reserved3, align 4
  %87 = load ptr, ptr %5, align 8
  %88 = call ptr @proto_tree_add_item(ptr noundef %85, i32 noundef %86, ptr noundef %87, i32 noundef 7, i32 noundef 1, i32 noundef 0)
  br label %94

89:                                               ; preds = %78
  %90 = load ptr, ptr %16, align 8
  %91 = load i32, ptr @hf_ubx_rxm_sfrbx_reserved1, align 4
  %92 = load ptr, ptr %5, align 8
  %93 = call ptr @proto_tree_add_item(ptr noundef %90, i32 noundef %91, ptr noundef %92, i32 noundef 7, i32 noundef 1, i32 noundef 0)
  br label %94

94:                                               ; preds = %89, %84, %78
  %95 = load ptr, ptr %16, align 8
  %96 = load i32, ptr @hf_ubx_rxm_sfrbx_dwrd, align 4
  %97 = load ptr, ptr %5, align 8
  %98 = load i32, ptr %13, align 4
  %99 = mul i32 %98, 4
  %100 = call ptr @proto_tree_add_item(ptr noundef %95, i32 noundef %96, ptr noundef %97, i32 noundef 8, i32 noundef %99, i32 noundef 0)
  %101 = load i32, ptr %12, align 4
  %102 = icmp eq i32 %101, 0
  br i1 %102, label %103, label %108

103:                                              ; preds = %94
  %104 = load ptr, ptr %5, align 8
  %105 = load i32, ptr %13, align 4
  %106 = mul i32 4, %105
  %107 = call ptr @tvb_new_subset_length(ptr noundef %104, i32 noundef 8, i32 noundef %106)
  store ptr %107, ptr %9, align 8
  br label %147

108:                                              ; preds = %94
  %109 = load ptr, ptr %6, align 8
  %110 = getelementptr inbounds %struct._packet_info, ptr %109, i32 0, i32 50
  %111 = load ptr, ptr %110, align 8
  %112 = load i32, ptr %13, align 4
  %113 = mul i32 %112, 4
  %114 = zext i32 %113 to i64
  %115 = call noalias ptr @wmem_alloc(ptr noundef %111, i64 noundef %114)
  store ptr %115, ptr %10, align 8
  store i8 0, ptr %11, align 1
  br label %116

116:                                              ; preds = %134, %108
  %117 = load i8, ptr %11, align 1
  %118 = zext i8 %117 to i32
  %119 = load i32, ptr %13, align 4
  %120 = icmp ult i32 %118, %119
  br i1 %120, label %121, label %137

121:                                              ; preds = %116
  %122 = load ptr, ptr %10, align 8
  %123 = load i8, ptr %11, align 1
  %124 = zext i8 %123 to i32
  %125 = mul i32 4, %124
  %126 = sext i32 %125 to i64
  %127 = getelementptr i8, ptr %122, i64 %126
  %128 = load ptr, ptr %5, align 8
  %129 = load i8, ptr %11, align 1
  %130 = zext i8 %129 to i32
  %131 = mul i32 %130, 4
  %132 = add i32 8, %131
  %133 = call i32 @tvb_get_guint32(ptr noundef %128, i32 noundef %132, i32 noundef -2147483648)
  call void @phton32(ptr noundef %127, i32 noundef %133)
  br label %134

134:                                              ; preds = %121
  %135 = load i8, ptr %11, align 1
  %136 = add i8 %135, 1
  store i8 %136, ptr %11, align 1
  br label %116, !llvm.loop !16

137:                                              ; preds = %116
  %138 = load ptr, ptr %5, align 8
  %139 = load ptr, ptr %10, align 8
  %140 = load i32, ptr %13, align 4
  %141 = mul i32 %140, 4
  %142 = load i32, ptr %13, align 4
  %143 = mul i32 %142, 4
  %144 = call ptr @tvb_new_child_real_data(ptr noundef %138, ptr noundef %139, i32 noundef %141, i32 noundef %143)
  store ptr %144, ptr %9, align 8
  %145 = load ptr, ptr %6, align 8
  %146 = load ptr, ptr %9, align 8
  call void @add_new_data_source(ptr noundef %145, ptr noundef %146, ptr noundef @.str.765)
  br label %147

147:                                              ; preds = %137, %103
  %148 = load ptr, ptr @ubx_gnssid_dissector_table, align 8
  %149 = load i32, ptr %12, align 4
  %150 = load ptr, ptr %9, align 8
  %151 = load ptr, ptr %6, align 8
  %152 = load ptr, ptr %7, align 8
  %153 = call i32 @dissector_try_uint(ptr noundef %148, i32 noundef %149, ptr noundef %150, ptr noundef %151, ptr noundef %152)
  %154 = icmp ne i32 %153, 0
  br i1 %154, label %160, label %155

155:                                              ; preds = %147
  %156 = load ptr, ptr %9, align 8
  %157 = load ptr, ptr %6, align 8
  %158 = load ptr, ptr %7, align 8
  %159 = call i32 @call_data_dissector(ptr noundef %156, ptr noundef %157, ptr noundef %158)
  br label %160

160:                                              ; preds = %155, %147
  %161 = load ptr, ptr %5, align 8
  %162 = call i32 @tvb_captured_length(ptr noundef %161)
  ret i32 %162
}