; Function Attrs: nounwind uwtable
define internal i32 @dissect_ubx_rxm_sfrbx(ptr noundef %0, ptr noundef %1, ptr noundef %2, ptr readnone captures(none) %3) #0 {
  %5 = alloca i32, align 4
  %6 = getelementptr inbounds nuw i8, ptr %1, i64 8
  %7 = load ptr, ptr %6, align 8
  tail call void @col_set_str(ptr noundef %7, i32 noundef 34, ptr noundef nonnull @.str.504) #5
  %8 = load ptr, ptr %6, align 8
  tail call void @col_clear(ptr noundef %8, i32 noundef 25) #5
  %9 = tail call zeroext i8 @tvb_get_guint8(ptr noundef %0, i32 noundef 4) #5
  %10 = zext i8 %9 to i32
  %11 = tail call zeroext i8 @tvb_get_guint8(ptr noundef %0, i32 noundef 6) #5
  %12 = load i32, ptr @hf_ubx_rxm_sfrbx, align 4
  %13 = shl nuw nsw i32 %10, 2
  %14 = add nuw nsw i32 %13, 8
  %15 = tail call ptr @proto_tree_add_item(ptr noundef %2, i32 noundef %12, ptr noundef %0, i32 noundef 0, i32 noundef %14, i32 noundef 0) #5
  %16 = load i32, ptr @ett_ubx_rxm_sfrbx, align 4
  %17 = tail call ptr @proto_item_add_subtree(ptr noundef %15, i32 noundef %16) #5
  %18 = load i32, ptr @hf_ubx_rxm_sfrbx_gnssid, align 4
  %19 = call ptr @proto_tree_add_item_ret_uint(ptr noundef %17, i32 noundef %18, ptr noundef %0, i32 noundef 0, i32 noundef 1, i32 noundef 0, ptr noundef nonnull %5) #5
  %20 = load i32, ptr @hf_ubx_rxm_sfrbx_svid, align 4
  %21 = call ptr @proto_tree_add_item(ptr noundef %17, i32 noundef %20, ptr noundef %0, i32 noundef 1, i32 noundef 1, i32 noundef 0) #5
  switch i8 %11, label %28 [
    i8 1, label %.sink.split
    i8 2, label %.thread61
  ]

.thread61:                                        ; preds = %4
  br label %.sink.split

.sink.split:                                      ; preds = %4, %.thread61
  %hf_ubx_rxm_sfrbx_sigid.sink = phi ptr [ @hf_ubx_rxm_sfrbx_sigid, %.thread61 ], [ @hf_ubx_rxm_sfrbx_reserved1, %4 ]
  %hf_ubx_rxm_sfrbx_freqid.sink.ph = phi ptr [ @hf_ubx_rxm_sfrbx_chn, %.thread61 ], [ @hf_ubx_rxm_sfrbx_reserved2, %4 ]
  %hf_ubx_rxm_sfrbx_version.sink.ph = phi ptr [ @hf_ubx_rxm_sfrbx_reserved1, %.thread61 ], [ @hf_ubx_rxm_sfrbx_reserved3, %4 ]
  %22 = load i32, ptr %hf_ubx_rxm_sfrbx_sigid.sink, align 4
  %23 = call ptr @proto_tree_add_item(ptr noundef %17, i32 noundef %22, ptr noundef %0, i32 noundef 2, i32 noundef 1, i32 noundef 0) #5
  %24 = load i32, ptr @hf_ubx_rxm_sfrbx_freqid, align 4
  %25 = call ptr @proto_tree_add_item(ptr noundef %17, i32 noundef %24, ptr noundef %0, i32 noundef 3, i32 noundef 1, i32 noundef 0) #5
  %26 = load i32, ptr @hf_ubx_rxm_sfrbx_numwords, align 4
  %27 = call ptr @proto_tree_add_item(ptr noundef %17, i32 noundef %26, ptr noundef %0, i32 noundef 4, i32 noundef 1, i32 noundef 0) #5
  br label %28

28:                                               ; preds = %.sink.split, %4
  %hf_ubx_rxm_sfrbx_freqid.sink = phi ptr [ @hf_ubx_rxm_sfrbx_freqid, %4 ], [ %hf_ubx_rxm_sfrbx_freqid.sink.ph, %.sink.split ]
  %.sink71 = phi i32 [ 3, %4 ], [ 5, %.sink.split ]
  %hf_ubx_rxm_sfrbx_numwords.sink = phi ptr [ @hf_ubx_rxm_sfrbx_numwords, %4 ], [ @hf_ubx_rxm_sfrbx_version, %.sink.split ]
  %.sink70 = phi i32 [ 4, %4 ], [ 6, %.sink.split ]
  %hf_ubx_rxm_sfrbx_version.sink = phi ptr [ @hf_ubx_rxm_sfrbx_version, %4 ], [ %hf_ubx_rxm_sfrbx_version.sink.ph, %.sink.split ]
  %.sink69 = phi i32 [ 6, %4 ], [ 7, %.sink.split ]
  %29 = load i32, ptr %hf_ubx_rxm_sfrbx_freqid.sink, align 4
  %30 = call ptr @proto_tree_add_item(ptr noundef %17, i32 noundef %29, ptr noundef %0, i32 noundef %.sink71, i32 noundef 1, i32 noundef 0) #5
  %31 = load i32, ptr %hf_ubx_rxm_sfrbx_numwords.sink, align 4
  %32 = call ptr @proto_tree_add_item(ptr noundef %17, i32 noundef %31, ptr noundef %0, i32 noundef %.sink70, i32 noundef 1, i32 noundef 0) #5
  %33 = load i32, ptr %hf_ubx_rxm_sfrbx_version.sink, align 4
  %34 = call ptr @proto_tree_add_item(ptr noundef %17, i32 noundef %33, ptr noundef %0, i32 noundef %.sink69, i32 noundef 1, i32 noundef 0) #5
  %35 = load i32, ptr @hf_ubx_rxm_sfrbx_dwrd, align 4
  %36 = call ptr @proto_tree_add_item(ptr noundef %17, i32 noundef %35, ptr noundef %0, i32 noundef 8, i32 noundef %13, i32 noundef 0) #5
  %37 = load i32, ptr %5, align 4
  %38 = icmp eq i32 %37, 0
  br i1 %38, label %39, label %41

39:                                               ; preds = %28
  %40 = call ptr @tvb_new_subset_length(ptr noundef %0, i32 noundef 8, i32 noundef %13) #5
  br label %62

41:                                               ; preds = %28
  %42 = getelementptr inbounds nuw i8, ptr %1, i64 408
  %43 = load ptr, ptr %42, align 8
  %44 = zext nneg i32 %13 to i64
  %45 = call noalias ptr @wmem_alloc(ptr noundef %43, i64 noundef %44) #5
  %.not65 = icmp eq i8 %9, 0
  br i1 %.not65, label %._crit_edge, label %.lr.ph.preheader

.lr.ph.preheader:                                 ; preds = %41
  %wide.trip.count = zext i8 %9 to i64
  br label %.lr.ph

.lr.ph:                                           ; preds = %.lr.ph.preheader, %.lr.ph
  %indvars.iv66 = phi i64 [ 0, %.lr.ph.preheader ], [ %indvars.iv.next67, %.lr.ph ]
  %46 = shl nuw nsw i64 %indvars.iv66, 2
  %47 = getelementptr i8, ptr %45, i64 %46
  %48 = trunc i64 %46 to i32
  %49 = add i32 %48, 8
  %50 = call i32 @tvb_get_guint32(ptr noundef %0, i32 noundef %49, i32 noundef -2147483648) #5
  %51 = lshr i32 %50, 24
  %52 = trunc nuw i32 %51 to i8
  store i8 %52, ptr %47, align 1
  %53 = lshr i32 %50, 16
  %54 = trunc i32 %53 to i8
  %55 = getelementptr i8, ptr %47, i64 1
  store i8 %54, ptr %55, align 1
  %56 = lshr i32 %50, 8
  %57 = trunc i32 %56 to i8
  %58 = getelementptr i8, ptr %47, i64 2
  store i8 %57, ptr %58, align 1
  %59 = trunc i32 %50 to i8
  %60 = getelementptr i8, ptr %47, i64 3
  store i8 %59, ptr %60, align 1
  %indvars.iv.next67 = add nuw nsw i64 %indvars.iv66, 1
  %exitcond.not = icmp eq i64 %indvars.iv.next67, %wide.trip.count
  br i1 %exitcond.not, label %._crit_edge, label %.lr.ph, !llvm.loop !16

._crit_edge:                                      ; preds = %.lr.ph, %41
  %61 = call ptr @tvb_new_child_real_data(ptr noundef %0, ptr noundef %45, i32 noundef %13, i32 noundef %13) #5
  call void @add_new_data_source(ptr noundef %1, ptr noundef %61, ptr noundef nonnull @.str.765) #5
  br label %62

62:                                               ; preds = %._crit_edge, %39
  %.0 = phi ptr [ %40, %39 ], [ %61, %._crit_edge ]
  %63 = load ptr, ptr @ubx_gnssid_dissector_table, align 8
  %64 = load i32, ptr %5, align 4
  %65 = call i32 @dissector_try_uint(ptr noundef %63, i32 noundef %64, ptr noundef %.0, ptr noundef %1, ptr noundef %2) #5
  %.not = icmp eq i32 %65, 0
  br i1 %.not, label %66, label %68

66:                                               ; preds = %62
  %67 = call i32 @call_data_dissector(ptr noundef %.0, ptr noundef %1, ptr noundef %2) #5
  br label %68

68:                                               ; preds = %66, %62
  %69 = call i32 @tvb_captured_length(ptr noundef %0) #5
  ret i32 %69
}